target datalayout = "e-m:e-p270:32:32-p271:32:32-p272:64:64-i64:64-i128:128-f80:128-n8:16:32:64-S128"
target triple = "x86_64-pc-linux-gnu"

%struct.mbedtls_mpi = type { ptr, i16, i16 }

; Function Attrs: nounwind uwtable
define hidden i32 @mbedtls_mpi_grow(ptr noundef %0, i64 noundef %1) #0 {
  %3 = alloca i32, align 4
  %4 = alloca ptr, align 8
  %5 = alloca i64, align 8
  %6 = alloca ptr, align 8
  %7 = alloca i32, align 4
  store ptr %0, ptr %4, align 8, !tbaa !3
  store i64 %1, ptr %5, align 8, !tbaa !15
  call void @llvm.lifetime.start.p0(i64 8, ptr %6) #9
  %8 = load i64, ptr %5, align 8, !tbaa !15
  %9 = icmp ugt i64 %8, 10000
  br i1 %9, label %10, label %11

10:                                               ; preds = %2
  store i32 -16, ptr %3, align 4
  store i32 1, ptr %7, align 4
  br label %55

11:                                               ; preds = %2
  %12 = load ptr, ptr %4, align 8, !tbaa !3
  %13 = getelementptr inbounds nuw %struct.mbedtls_mpi, ptr %12, i32 0, i32 2
  %14 = load i16, ptr %13, align 2, !tbaa !10
  %15 = zext i16 %14 to i64
  %16 = load i64, ptr %5, align 8, !tbaa !15
  %17 = icmp ult i64 %15, %16
  br i1 %17, label %18, label %54

18:                                               ; preds = %11
  %19 = load i64, ptr %5, align 8, !tbaa !15
  %20 = call noalias ptr @calloc(i64 noundef %19, i64 noundef 8) #10
  store ptr %20, ptr %6, align 8, !tbaa !25
  %21 = icmp eq ptr %20, null
  br i1 %21, label %22, label %23

22:                                               ; preds = %18
  store i32 -16, ptr %3, align 4
  store i32 1, ptr %7, align 4
  br label %55

23:                                               ; preds = %18
  %24 = load ptr, ptr %4, align 8, !tbaa !3
  %25 = getelementptr inbounds nuw %struct.mbedtls_mpi, ptr %24, i32 0, i32 0
  %26 = load ptr, ptr %25, align 8, !tbaa !17
  %27 = icmp ne ptr %26, null
  br i1 %27, label %28, label %46

28:                                               ; preds = %23
  %29 = load ptr, ptr %6, align 8, !tbaa !25
  %30 = load ptr, ptr %4, align 8, !tbaa !3
  %31 = getelementptr inbounds nuw %struct.mbedtls_mpi, ptr %30, i32 0, i32 0
  %32 = load ptr, ptr %31, align 8, !tbaa !17
  %33 = load ptr, ptr %4, align 8, !tbaa !3
  %34 = getelementptr inbounds nuw %struct.mbedtls_mpi, ptr %33, i32 0, i32 2
  %35 = load i16, ptr %34, align 2, !tbaa !10
  %36 = zext i16 %35 to i64
  %37 = mul i64 %36, 8
  call void @llvm.memcpy.p0.p0.i64(ptr align 8 %29, ptr align 8 %32, i64 %37, i1 false)
  %38 = load ptr, ptr %4, align 8, !tbaa !3
  %39 = getelementptr inbounds nuw %struct.mbedtls_mpi, ptr %38, i32 0, i32 0
  %40 = load ptr, ptr %39, align 8, !tbaa !17
  %41 = load ptr, ptr %4, align 8, !tbaa !3
  %42 = getelementptr inbounds nuw %struct.mbedtls_mpi, ptr %41, i32 0, i32 2
  %43 = load i16, ptr %42, align 2, !tbaa !10
  %44 = zext i16 %43 to i64
  %45 = mul i64 8, %44
  call void @mbedtls_zeroize_and_free(ptr noundef %40, i64 noundef %45)
  br label %46

46:                                               ; preds = %28, %23
  %47 = load i64, ptr %5, align 8, !tbaa !15
  %48 = trunc i64 %47 to i16
  %49 = load ptr, ptr %4, align 8, !tbaa !3
  %50 = getelementptr inbounds nuw %struct.mbedtls_mpi, ptr %49, i32 0, i32 2
  store i16 %48, ptr %50, align 2, !tbaa !10
  %51 = load ptr, ptr %6, align 8, !tbaa !25
  %52 = load ptr, ptr %4, align 8, !tbaa !3
  %53 = getelementptr inbounds nuw %struct.mbedtls_mpi, ptr %52, i32 0, i32 0
  store ptr %51, ptr %53, align 8, !tbaa !17
  br label %54

54:                                               ; preds = %46, %11
  store i32 0, ptr %3, align 4
  store i32 1, ptr %7, align 4
  br label %55

55:                                               ; preds = %54, %22, %10
  call void @llvm.lifetime.end.p0(i64 8, ptr %6) #9
  %56 = load i32, ptr %3, align 4
  ret i32 %56
}

; Function Attrs: nounwind uwtable
define hidden i32 @mbedtls_mpi_shrink(ptr noundef %0, i64 noundef %1) #0 {
  %3 = alloca i32, align 4
  %4 = alloca ptr, align 8
  %5 = alloca i64, align 8
  %6 = alloca ptr, align 8
  %7 = alloca i64, align 8
  %8 = alloca i32, align 4
  store ptr %0, ptr %4, align 8, !tbaa !3
  store i64 %1, ptr %5, align 8, !tbaa !15
  call void @llvm.lifetime.start.p0(i64 8, ptr %6) #9
  call void @llvm.lifetime.start.p0(i64 8, ptr %7) #9
  %9 = load i64, ptr %5, align 8, !tbaa !15
  %10 = icmp ugt i64 %9, 10000
  br i1 %10, label %11, label %12

11:                                               ; preds = %2
  store i32 -16, ptr %3, align 4
  store i32 1, ptr %8, align 4
  br label %87

12:                                               ; preds = %2
  %13 = load ptr, ptr %4, align 8, !tbaa !3
  %14 = getelementptr inbounds nuw %struct.mbedtls_mpi, ptr %13, i32 0, i32 2
  %15 = load i16, ptr %14, align 2, !tbaa !10
  %16 = zext i16 %15 to i64
  %17 = load i64, ptr %5, align 8, !tbaa !15
  %18 = icmp ule i64 %16, %17
  br i1 %18, label %19, label %23

19:                                               ; preds = %12
  %20 = load ptr, ptr %4, align 8, !tbaa !3
  %21 = load i64, ptr %5, align 8, !tbaa !15
  %22 = call i32 @mbedtls_mpi_grow(ptr noundef %20, i64 noundef %21)
  store i32 %22, ptr %3, align 4
  store i32 1, ptr %8, align 4
  br label %87

23:                                               ; preds = %12
  %24 = load ptr, ptr %4, align 8, !tbaa !3
  %25 = getelementptr inbounds nuw %struct.mbedtls_mpi, ptr %24, i32 0, i32 2
  %26 = load i16, ptr %25, align 2, !tbaa !10
  %27 = zext i16 %26 to i32
  %28 = sub nsw i32 %27, 1
  %29 = sext i32 %28 to i64
  store i64 %29, ptr %7, align 8, !tbaa !15
  br label %30

30:                                               ; preds = %43, %23
  %31 = load i64, ptr %7, align 8, !tbaa !15
  %32 = icmp ugt i64 %31, 0
  br i1 %32, label %33, label %46

33:                                               ; preds = %30
  %34 = load ptr, ptr %4, align 8, !tbaa !3
  %35 = getelementptr inbounds nuw %struct.mbedtls_mpi, ptr %34, i32 0, i32 0
  %36 = load ptr, ptr %35, align 8, !tbaa !17
  %37 = load i64, ptr %7, align 8, !tbaa !15
  %38 = getelementptr inbounds nuw i64, ptr %36, i64 %37
  %39 = load i64, ptr %38, align 8, !tbaa !15
  %40 = icmp ne i64 %39, 0
  br i1 %40, label %41, label %42

41:                                               ; preds = %33
  br label %46

42:                                               ; preds = %33
  br label %43

43:                                               ; preds = %42
  %44 = load i64, ptr %7, align 8, !tbaa !15
  %45 = add i64 %44, -1
  store i64 %45, ptr %7, align 8, !tbaa !15
  br label %30, !llvm.loop !27

46:                                               ; preds = %41, %30
  %47 = load i64, ptr %7, align 8, !tbaa !15
  %48 = add i64 %47, 1
  store i64 %48, ptr %7, align 8, !tbaa !15
  %49 = load i64, ptr %7, align 8, !tbaa !15
  %50 = load i64, ptr %5, align 8, !tbaa !15
  %51 = icmp ult i64 %49, %50
  br i1 %51, label %52, label %54

52:                                               ; preds = %46
  %53 = load i64, ptr %5, align 8, !tbaa !15
  store i64 %53, ptr %7, align 8, !tbaa !15
  br label %54

54:                                               ; preds = %52, %46
  %55 = load i64, ptr %7, align 8, !tbaa !15
  %56 = call noalias ptr @calloc(i64 noundef %55, i64 noundef 8) #10
  store ptr %56, ptr %6, align 8, !tbaa !25
  %57 = icmp eq ptr %56, null
  br i1 %57, label %58, label %59

58:                                               ; preds = %54
  store i32 -16, ptr %3, align 4
  store i32 1, ptr %8, align 4
  br label %87

59:                                               ; preds = %54
  %60 = load ptr, ptr %4, align 8, !tbaa !3
  %61 = getelementptr inbounds nuw %struct.mbedtls_mpi, ptr %60, i32 0, i32 0
  %62 = load ptr, ptr %61, align 8, !tbaa !17
  %63 = icmp ne ptr %62, null
  br i1 %63, label %64, label %79

64:                                               ; preds = %59
  %65 = load ptr, ptr %6, align 8, !tbaa !25
  %66 = load ptr, ptr %4, align 8, !tbaa !3
  %67 = getelementptr inbounds nuw %struct.mbedtls_mpi, ptr %66, i32 0, i32 0
  %68 = load ptr, ptr %67, align 8, !tbaa !17
  %69 = load i64, ptr %7, align 8, !tbaa !15
  %70 = mul i64 %69, 8
  call void @llvm.memcpy.p0.p0.i64(ptr align 8 %65, ptr align 8 %68, i64 %70, i1 false)
  %71 = load ptr, ptr %4, align 8, !tbaa !3
  %72 = getelementptr inbounds nuw %struct.mbedtls_mpi, ptr %71, i32 0, i32 0
  %73 = load ptr, ptr %72, align 8, !tbaa !17
  %74 = load ptr, ptr %4, align 8, !tbaa !3
  %75 = getelementptr inbounds nuw %struct.mbedtls_mpi, ptr %74, i32 0, i32 2
  %76 = load i16, ptr %75, align 2, !tbaa !10
  %77 = zext i16 %76 to i64
  %78 = mul i64 8, %77
  call void @mbedtls_zeroize_and_free(ptr noundef %73, i64 noundef %78)
  br label %79

79:                                               ; preds = %64, %59
  %80 = load i64, ptr %7, align 8, !tbaa !15
  %81 = trunc i64 %80 to i16
  %82 = load ptr, ptr %4, align 8, !tbaa !3
  %83 = getelementptr inbounds nuw %struct.mbedtls_mpi, ptr %82, i32 0, i32 2
  store i16 %81, ptr %83, align 2, !tbaa !10
  %84 = load ptr, ptr %6, align 8, !tbaa !25
  %85 = load ptr, ptr %4, align 8, !tbaa !3
  %86 = getelementptr inbounds nuw %struct.mbedtls_mpi, ptr %85, i32 0, i32 0
  store ptr %84, ptr %86, align 8, !tbaa !17
  store i32 0, ptr %3, align 4
  store i32 1, ptr %8, align 4
  br label %87

87:                                               ; preds = %79, %58, %19, %11
  call void @llvm.lifetime.end.p0(i64 8, ptr %7) #9
  call void @llvm.lifetime.end.p0(i64 8, ptr %6) #9
  %88 = load i32, ptr %3, align 4
  ret i32 %88
}