; Function Attrs: nounwind uwtable
define hidden range(i32 -16, 1) i32 @mbedtls_mpi_shrink(ptr noundef captures(none) %0, i64 noundef %1) local_unnamed_addr #0 {
  %3 = icmp ugt i64 %1, 10000
  br i1 %3, label %mbedtls_mpi_grow.exit, label %4

4:                                                ; preds = %2
  %5 = getelementptr inbounds nuw i8, ptr %0, i64 10
  %6 = load i16, ptr %5, align 2, !tbaa !3
  %7 = zext i16 %6 to i64
  %.not = icmp samesign ult i64 %1, %7
  br i1 %.not, label %.preheader, label %8

8:                                                ; preds = %4
  %9 = icmp samesign ugt i64 %1, %7
  br i1 %9, label %10, label %mbedtls_mpi_grow.exit

10:                                               ; preds = %8
  %11 = tail call noalias ptr @calloc(i64 noundef %1, i64 noundef 8) #17
  %12 = icmp eq ptr %11, null
  br i1 %12, label %mbedtls_mpi_grow.exit, label %13

13:                                               ; preds = %10
  %14 = load ptr, ptr %0, align 8, !tbaa !12
  %.not.i = icmp eq ptr %14, null
  br i1 %.not.i, label %mbedtls_mpi_grow.exit.sink.split, label %15

15:                                               ; preds = %13
  %16 = shl nuw nsw i64 %7, 3
  tail call void @llvm.memcpy.p0.p0.i64(ptr nonnull align 8 %11, ptr nonnull align 8 %14, i64 %16, i1 false)
  tail call void @mbedtls_zeroize_and_free(ptr noundef nonnull %14, i64 noundef %16) #16
  br label %mbedtls_mpi_grow.exit.sink.split

.preheader:                                       ; preds = %4, %17
  %.0.in = phi i64 [ %.0, %17 ], [ %7, %4 ]
  %.0 = add nsw i64 %.0.in, -1
  %.not30 = icmp eq i64 %.0, 0
  br i1 %.not30, label %21, label %17

17:                                               ; preds = %.preheader
  %18 = load ptr, ptr %0, align 8, !tbaa !12
  %19 = getelementptr inbounds nuw i64, ptr %18, i64 %.0
  %20 = load i64, ptr %19, align 8, !tbaa !17
  %.not31 = icmp eq i64 %20, 0
  br i1 %.not31, label %.preheader, label %21, !llvm.loop !21

21:                                               ; preds = %17, %.preheader
  %spec.select = tail call i64 @llvm.umax.i64(i64 %.0.in, i64 %1)
  %22 = tail call noalias ptr @calloc(i64 noundef %spec.select, i64 noundef 8) #17
  %23 = icmp eq ptr %22, null
  br i1 %23, label %mbedtls_mpi_grow.exit, label %24

24:                                               ; preds = %21
  %25 = load ptr, ptr %0, align 8, !tbaa !12
  %.not32 = icmp eq ptr %25, null
  br i1 %.not32, label %mbedtls_mpi_grow.exit.sink.split, label %26

26:                                               ; preds = %24
  %27 = shl i64 %spec.select, 3
  tail call void @llvm.memcpy.p0.p0.i64(ptr nonnull align 8 %22, ptr nonnull align 8 %25, i64 %27, i1 false)
  %28 = shl nuw nsw i64 %7, 3
  tail call void @mbedtls_zeroize_and_free(ptr noundef nonnull %25, i64 noundef %28) #16
  br label %mbedtls_mpi_grow.exit.sink.split

mbedtls_mpi_grow.exit.sink.split:                 ; preds = %24, %26, %13, %15
  %.sink34 = phi i64 [ %1, %15 ], [ %1, %13 ], [ %spec.select, %26 ], [ %spec.select, %24 ]
  %.sink = phi ptr [ %11, %15 ], [ %11, %13 ], [ %22, %26 ], [ %22, %24 ]
  %29 = trunc i64 %.sink34 to i16
  store i16 %29, ptr %5, align 2, !tbaa !3
  store ptr %.sink, ptr %0, align 8, !tbaa !12
  br label %mbedtls_mpi_grow.exit

mbedtls_mpi_grow.exit:                            ; preds = %mbedtls_mpi_grow.exit.sink.split, %10, %8, %21, %2
  %.025 = phi i32 [ -16, %2 ], [ -16, %21 ], [ -16, %10 ], [ 0, %8 ], [ 0, %mbedtls_mpi_grow.exit.sink.split ]
  ret i32 %.025
}